target datalayout = "e-m:e-p270:32:32-p271:32:32-p272:64:64-i64:64-i128:128-f80:128-n8:16:32:64-S128"
target triple = "x86_64-unknown-linux-gnu"

%class.btChunk = type { i32, i32, ptr, i32, i32 }

; Function Attrs: mustprogress uwtable
define dso_local void @_ZNK17btCollisionObject21serializeSingleObjectEP12btSerializer(ptr noundef nonnull align 8 dereferenceable(372) %this, ptr noundef %serializer) unnamed_addr #2 align 2 {
entry:
  %this.addr = alloca ptr, align 8
  %serializer.addr = alloca ptr, align 8
  %len = alloca i32, align 4
  %chunk = alloca ptr, align 8
  %structType = alloca ptr, align 8
  store ptr %this, ptr %this.addr, align 8
  store ptr %serializer, ptr %serializer.addr, align 8
  %this1 = load ptr, ptr %this.addr, align 8
  %vtable = load ptr, ptr %this1, align 8
  %vfn = getelementptr inbounds ptr, ptr %vtable, i64 4
  %0 = load ptr, ptr %vfn, align 8
  %call = call noundef i32 %0(ptr noundef nonnull align 8 dereferenceable(372) %this1)
  store i32 %call, ptr %len, align 4
  %1 = load ptr, ptr %serializer.addr, align 8
  %2 = load i32, ptr %len, align 4
  %conv = sext i32 %2 to i64
  %vtable2 = load ptr, ptr %1, align 8
  %vfn3 = getelementptr inbounds ptr, ptr %vtable2, i64 4
  %3 = load ptr, ptr %vfn3, align 8
  %call4 = call noundef ptr %3(ptr noundef nonnull align 8 dereferenceable(8) %1, i64 noundef %conv, i32 noundef 1)
  store ptr %call4, ptr %chunk, align 8
  %4 = load ptr, ptr %chunk, align 8
  %m_oldPtr = getelementptr inbounds %class.btChunk, ptr %4, i32 0, i32 2
  %5 = load ptr, ptr %m_oldPtr, align 8
  %6 = load ptr, ptr %serializer.addr, align 8
  %vtable5 = load ptr, ptr %this1, align 8
  %vfn6 = getelementptr inbounds ptr, ptr %vtable5, i64 5
  %7 = load ptr, ptr %vfn6, align 8
  %call7 = call noundef ptr %7(ptr noundef nonnull align 8 dereferenceable(372) %this1, ptr noundef %5, ptr noundef %6)
  store ptr %call7, ptr %structType, align 8
  %8 = load ptr, ptr %serializer.addr, align 8
  %9 = load ptr, ptr %chunk, align 8
  %10 = load ptr, ptr %structType, align 8
  %vtable8 = load ptr, ptr %8, align 8
  %vfn9 = getelementptr inbounds ptr, ptr %vtable8, i64 5
  %11 = load ptr, ptr %vfn9, align 8
  call void %11(ptr noundef nonnull align 8 dereferenceable(8) %8, ptr noundef %9, ptr noundef %10, i32 noundef 1245859651, ptr noundef %this1)
  ret void
}