; Function Attrs: mustprogress uwtable
define dso_local void @_ZNK17btCollisionObject21serializeSingleObjectEP12btSerializer(ptr noundef nonnull align 8 dereferenceable(372) %this, ptr noundef %serializer) unnamed_addr #3 align 2 {
entry:
  %vtable = load ptr, ptr %this, align 8
  %vfn = getelementptr inbounds i8, ptr %vtable, i64 32
  %0 = load ptr, ptr %vfn, align 8
  %call = tail call noundef i32 %0(ptr noundef nonnull align 8 dereferenceable(372) %this)
  %conv = sext i32 %call to i64
  %vtable2 = load ptr, ptr %serializer, align 8
  %vfn3 = getelementptr inbounds i8, ptr %vtable2, i64 32
  %1 = load ptr, ptr %vfn3, align 8
  %call4 = tail call noundef ptr %1(ptr noundef nonnull align 8 dereferenceable(8) %serializer, i64 noundef %conv, i32 noundef 1)
  %m_oldPtr = getelementptr inbounds i8, ptr %call4, i64 8
  %2 = load ptr, ptr %m_oldPtr, align 8
  %vtable5 = load ptr, ptr %this, align 8
  %vfn6 = getelementptr inbounds i8, ptr %vtable5, i64 40
  %3 = load ptr, ptr %vfn6, align 8
  %call7 = tail call noundef ptr %3(ptr noundef nonnull align 8 dereferenceable(372) %this, ptr noundef %2, ptr noundef nonnull %serializer)
  %vtable8 = load ptr, ptr %serializer, align 8
  %vfn9 = getelementptr inbounds i8, ptr %vtable8, i64 40
  %4 = load ptr, ptr %vfn9, align 8
  tail call void %4(ptr noundef nonnull align 8 dereferenceable(8) %serializer, ptr noundef %call4, ptr noundef %call7, i32 noundef 1245859651, ptr noundef nonnull %this)
  ret void
}